target datalayout = "e-m:e-p270:32:32-p271:32:32-p272:64:64-i64:64-i128:128-f80:128-n8:16:32:64-S128"
target triple = "x86_64-unknown-linux-gnu"

%"class.icu_75::DecimalFormatSymbols" = type <{ %"class.icu_75::UObject", [29 x %"class.icu_75::UnicodeString"], %"class.icu_75::UnicodeString", i32, [4 x i8], %"class.icu_75::Locale", [157 x i8], [157 x i8], [6 x i8], ptr, [3 x %"class.icu_75::UnicodeString"], [3 x %"class.icu_75::UnicodeString"], i8, i8, [9 x i8], [5 x i8] }>
%"class.icu_75::UObject" = type { ptr }
%"class.icu_75::UnicodeString" = type { %"class.icu_75::Replaceable", %"union.icu_75::UnicodeString::StackBufferOrFields" }
%"class.icu_75::Replaceable" = type { %"class.icu_75::UObject" }
%"union.icu_75::UnicodeString::StackBufferOrFields" = type { %struct.anon.0, [32 x i8] }
%struct.anon.0 = type { i16, i32, i32, ptr }
%"class.icu_75::Locale" = type <{ %"class.icu_75::UObject", [12 x i8], [6 x i8], [4 x i8], [2 x i8], i32, [4 x i8], ptr, [157 x i8], [3 x i8], ptr, i8, [7 x i8] }>
%struct.anon = type { i16, [27 x i16] }

@_ZTVN6icu_7520DecimalFormatSymbolsE = unnamed_addr constant { [5 x ptr] } { [5 x ptr] [ptr null, ptr @_ZTIN6icu_7520DecimalFormatSymbolsE, ptr @_ZN6icu_7520DecimalFormatSymbolsD1Ev, ptr @_ZN6icu_7520DecimalFormatSymbolsD0Ev, ptr @_ZNK6icu_7520DecimalFormatSymbols17getDynamicClassIDEv] }, align 8
@_ZTVN6icu_757UObjectE = external unnamed_addr constant { [5 x ptr] }, align 8
@_ZTVN6icu_7513UnicodeStringE = external unnamed_addr constant { [13 x ptr] }, align 8
@_ZTVN6icu_7511ReplaceableE = external unnamed_addr constant { [13 x ptr] }, align 8

; Function Attrs: mustprogress nounwind uwtable
define linkonce_odr void @_ZN6icu_7511ReplaceableC2Ev(ptr noundef nonnull align 8 dereferenceable(8) %this) unnamed_addr #0 comdat align 2 {
entry:
  %this.addr = alloca ptr, align 8
  store ptr %this, ptr %this.addr, align 8
  %this1 = load ptr, ptr %this.addr, align 8
  call void @_ZN6icu_757UObjectC2Ev(ptr noundef nonnull align 8 dereferenceable(8) %this1) #9
  store ptr getelementptr inbounds ({ [13 x ptr] }, ptr @_ZTVN6icu_7511ReplaceableE, i32 0, i32 0, i32 2), ptr %this1, align 8
  ret void
}

; Function Attrs: mustprogress uwtable
define linkonce_odr void @_ZN6icu_7513UnicodeStringC2Ev(ptr noundef nonnull align 8 dereferenceable(64) %this) unnamed_addr #1 comdat align 2 {
entry:
  %this.addr = alloca ptr, align 8
  store ptr %this, ptr %this.addr, align 8
  %this1 = load ptr, ptr %this.addr, align 8
  call void @_ZN6icu_7511ReplaceableC2Ev(ptr noundef nonnull align 8 dereferenceable(8) %this1)
  store ptr getelementptr inbounds ({ [13 x ptr] }, ptr @_ZTVN6icu_7513UnicodeStringE, i32 0, i32 0, i32 2), ptr %this1, align 8
  %fUnion2 = getelementptr inbounds %"class.icu_75::UnicodeString", ptr %this1, i32 0, i32 1
  %fLengthAndFlags = getelementptr inbounds %struct.anon, ptr %fUnion2, i32 0, i32 0
  store i16 2, ptr %fLengthAndFlags, align 8
  ret void
}

; Function Attrs: mustprogress nounwind uwtable
define linkonce_odr void @_ZN6icu_757UObjectC2Ev(ptr noundef nonnull align 8 dereferenceable(8) %this) unnamed_addr #0 comdat align 2 {
entry:
  %this.addr = alloca ptr, align 8
  store ptr %this, ptr %this.addr, align 8
  %this1 = load ptr, ptr %this.addr, align 8
  store ptr getelementptr inbounds ({ [5 x ptr] }, ptr @_ZTVN6icu_757UObjectE, i32 0, i32 0, i32 2), ptr %this1, align 8
  ret void
}

; Function Attrs: mustprogress uwtable
define void @_ZN6icu_7520DecimalFormatSymbolsC2Ev(ptr noundef nonnull align 8 dereferenceable(2883) %this) unnamed_addr #1 align 2 personality ptr @__gxx_personality_v0 {
entry:
  %this.addr = alloca ptr, align 8
  %exn.slot = alloca ptr, align 8
  %ehselector.slot = alloca i32, align 4
  store ptr %this, ptr %this.addr, align 8
  %this1 = load ptr, ptr %this.addr, align 8
  %0 = getelementptr inbounds i8, ptr %this1, i64 0
  call void @llvm.memset.p0.i64(ptr align 8 %0, i8 0, i64 8, i1 false)
  call void @_ZN6icu_757UObjectC2Ev(ptr noundef nonnull align 8 dereferenceable(8) %this1) #9
  store ptr getelementptr inbounds ({ [5 x ptr] }, ptr @_ZTVN6icu_7520DecimalFormatSymbolsE, i32 0, i32 0, i32 2), ptr %this1, align 8
  %fSymbols = getelementptr inbounds %"class.icu_75::DecimalFormatSymbols", ptr %this1, i32 0, i32 1
  %array.begin = getelementptr inbounds [29 x %"class.icu_75::UnicodeString"], ptr %fSymbols, i32 0, i32 0
  %arrayctor.end = getelementptr inbounds %"class.icu_75::UnicodeString", ptr %array.begin, i64 29
  br label %arrayctor.loop

arrayctor.loop:                                   ; preds = %invoke.cont, %entry
  %arrayctor.cur = phi ptr [ %array.begin, %entry ], [ %arrayctor.next, %invoke.cont ]
  invoke void @_ZN6icu_7513UnicodeStringC2Ev(ptr noundef nonnull align 8 dereferenceable(64) %arrayctor.cur)
          to label %invoke.cont unwind label %lpad

invoke.cont:                                      ; preds = %arrayctor.loop
  %arrayctor.next = getelementptr inbounds %"class.icu_75::UnicodeString", ptr %arrayctor.cur, i64 1
  %arrayctor.done = icmp eq ptr %arrayctor.next, %arrayctor.end
  br i1 %arrayctor.done, label %arrayctor.cont, label %arrayctor.loop

arrayctor.cont:                                   ; preds = %invoke.cont
  %fNoSymbol = getelementptr inbounds %"class.icu_75::DecimalFormatSymbols", ptr %this1, i32 0, i32 2
  invoke void @_ZN6icu_7513UnicodeStringC2Ev(ptr noundef nonnull align 8 dereferenceable(64) %fNoSymbol)
          to label %invoke.cont4 unwind label %lpad3

invoke.cont4:                                     ; preds = %arrayctor.cont
  %locale = getelementptr inbounds %"class.icu_75::DecimalFormatSymbols", ptr %this1, i32 0, i32 5
  %call = invoke noundef nonnull align 8 dereferenceable(217) ptr @_ZN6icu_756Locale7getRootEv()
          to label %invoke.cont6 unwind label %lpad5

invoke.cont6:                                     ; preds = %invoke.cont4
  invoke void @_ZN6icu_756LocaleC1ERKS0_(ptr noundef nonnull align 8 dereferenceable(217) %locale, ptr noundef nonnull align 8 dereferenceable(217) %call)
          to label %invoke.cont7 unwind label %lpad5

invoke.cont7:                                     ; preds = %invoke.cont6
  %currPattern = getelementptr inbounds %"class.icu_75::DecimalFormatSymbols", ptr %this1, i32 0, i32 9
  store ptr null, ptr %currPattern, align 8
  %currencySpcBeforeSym = getelementptr inbounds %"class.icu_75::DecimalFormatSymbols", ptr %this1, i32 0, i32 10
  %array.begin8 = getelementptr inbounds [3 x %"class.icu_75::UnicodeString"], ptr %currencySpcBeforeSym, i32 0, i32 0
  %arrayctor.end9 = getelementptr inbounds %"class.icu_75::UnicodeString", ptr %array.begin8, i64 3
  br label %arrayctor.loop10

arrayctor.loop10:                                 ; preds = %invoke.cont13, %invoke.cont7
  %arrayctor.cur11 = phi ptr [ %array.begin8, %invoke.cont7 ], [ %arrayctor.next20, %invoke.cont13 ]
  invoke void @_ZN6icu_7513UnicodeStringC2Ev(ptr noundef nonnull align 8 dereferenceable(64) %arrayctor.cur11)
          to label %invoke.cont13 unwind label %lpad12

invoke.cont13:                                    ; preds = %arrayctor.loop10
  %arrayctor.next20 = getelementptr inbounds %"class.icu_75::UnicodeString", ptr %arrayctor.cur11, i64 1
  %arrayctor.done21 = icmp eq ptr %arrayctor.next20, %arrayctor.end9
  br i1 %arrayctor.done21, label %arrayctor.cont22, label %arrayctor.loop10

arrayctor.cont22:                                 ; preds = %invoke.cont13
  %currencySpcAfterSym = getelementptr inbounds %"class.icu_75::DecimalFormatSymbols", ptr %this1, i32 0, i32 11
  %array.begin23 = getelementptr inbounds [3 x %"class.icu_75::UnicodeString"], ptr %currencySpcAfterSym, i32 0, i32 0
  %arrayctor.end24 = getelementptr inbounds %"class.icu_75::UnicodeString", ptr %array.begin23, i64 3
  br label %arrayctor.loop25

arrayctor.loop25:                                 ; preds = %invoke.cont28, %arrayctor.cont22
  %arrayctor.cur26 = phi ptr [ %array.begin23, %arrayctor.cont22 ], [ %arrayctor.next35, %invoke.cont28 ]
  invoke void @_ZN6icu_7513UnicodeStringC2Ev(ptr noundef nonnull align 8 dereferenceable(64) %arrayctor.cur26)
          to label %invoke.cont28 unwind label %lpad27

invoke.cont28:                                    ; preds = %arrayctor.loop25
  %arrayctor.next35 = getelementptr inbounds %"class.icu_75::UnicodeString", ptr %arrayctor.cur26, i64 1
  %arrayctor.done36 = icmp eq ptr %arrayctor.next35, %arrayctor.end24
  br i1 %arrayctor.done36, label %arrayctor.cont37, label %arrayctor.loop25

arrayctor.cont37:                                 ; preds = %invoke.cont28
  %nsName = getelementptr inbounds %"class.icu_75::DecimalFormatSymbols", ptr %this1, i32 0, i32 14
  %arrayinit.begin = getelementptr inbounds [9 x i8], ptr %nsName, i64 0, i64 0
  %arrayinit.end = getelementptr inbounds i8, ptr %arrayinit.begin, i64 9
  br label %arrayinit.body

arrayinit.body:                                   ; preds = %arrayinit.body, %arrayctor.cont37
  %arrayinit.cur = phi ptr [ %arrayinit.begin, %arrayctor.cont37 ], [ %arrayinit.next, %arrayinit.body ]
  store i8 0, ptr %arrayinit.cur, align 1
  %arrayinit.next = getelementptr inbounds i8, ptr %arrayinit.cur, i64 1
  %arrayinit.done = icmp eq ptr %arrayinit.next, %arrayinit.end
  br i1 %arrayinit.done, label %arrayinit.end38, label %arrayinit.body

arrayinit.end38:                                  ; preds = %arrayinit.body
  %actualLocale = getelementptr inbounds %"class.icu_75::DecimalFormatSymbols", ptr %this1, i32 0, i32 6
  %arraydecay = getelementptr inbounds [157 x i8], ptr %actualLocale, i64 0, i64 0
  store i8 0, ptr %arraydecay, align 8
  %validLocale = getelementptr inbounds %"class.icu_75::DecimalFormatSymbols", ptr %this1, i32 0, i32 7
  %arraydecay39 = getelementptr inbounds [157 x i8], ptr %validLocale, i64 0, i64 0
  store i8 0, ptr %arraydecay39, align 1
  invoke void @_ZN6icu_7520DecimalFormatSymbols10initializeEv(ptr noundef nonnull align 8 dereferenceable(2883) %this1)
          to label %invoke.cont41 unwind label %lpad40

invoke.cont41:                                    ; preds = %arrayinit.end38
  ret void

lpad:                                             ; preds = %arrayctor.loop
  %1 = landingpad { ptr, i32 }
          cleanup
  %2 = extractvalue { ptr, i32 } %1, 0
  store ptr %2, ptr %exn.slot, align 8
  %3 = extractvalue { ptr, i32 } %1, 1
  store i32 %3, ptr %ehselector.slot, align 4
  %arraydestroy.isempty = icmp eq ptr %array.begin, %arrayctor.cur
  br i1 %arraydestroy.isempty, label %arraydestroy.done2, label %arraydestroy.body

arraydestroy.body:                                ; preds = %arraydestroy.body, %lpad
  %arraydestroy.elementPast = phi ptr [ %arrayctor.cur, %lpad ], [ %arraydestroy.element, %arraydestroy.body ]
  %arraydestroy.element = getelementptr inbounds %"class.icu_75::UnicodeString", ptr %arraydestroy.elementPast, i64 -1
  call void @_ZN6icu_7513UnicodeStringD1Ev(ptr noundef nonnull align 8 dereferenceable(64) %arraydestroy.element) #9
  %arraydestroy.done = icmp eq ptr %arraydestroy.element, %array.begin
  br i1 %arraydestroy.done, label %arraydestroy.done2, label %arraydestroy.body

arraydestroy.done2:                               ; preds = %arraydestroy.body, %lpad
  br label %ehcleanup63

lpad3:                                            ; preds = %arrayctor.cont
  %4 = landingpad { ptr, i32 }
          cleanup
  %5 = extractvalue { ptr, i32 } %4, 0
  store ptr %5, ptr %exn.slot, align 8
  %6 = extractvalue { ptr, i32 } %4, 1
  store i32 %6, ptr %ehselector.slot, align 4
  br label %ehcleanup56

lpad5:                                            ; preds = %invoke.cont6, %invoke.cont4
  %7 = landingpad { ptr, i32 }
          cleanup
  %8 = extractvalue { ptr, i32 } %7, 0
  store ptr %8, ptr %exn.slot, align 8
  %9 = extractvalue { ptr, i32 } %7, 1
  store i32 %9, ptr %ehselector.slot, align 4
  br label %ehcleanup55

lpad12:                                           ; preds = %arrayctor.loop10
  %10 = landingpad { ptr, i32 }
          cleanup
  %11 = extractvalue { ptr, i32 } %10, 0
  store ptr %11, ptr %exn.slot, align 8
  %12 = extractvalue { ptr, i32 } %10, 1
  store i32 %12, ptr %ehselector.slot, align 4
  %arraydestroy.isempty14 = icmp eq ptr %array.begin8, %arrayctor.cur11
  br i1 %arraydestroy.isempty14, label %arraydestroy.done19, label %arraydestroy.body15

arraydestroy.body15:                              ; preds = %arraydestroy.body15, %lpad12
  %arraydestroy.elementPast16 = phi ptr [ %arrayctor.cur11, %lpad12 ], [ %arraydestroy.element17, %arraydestroy.body15 ]
  %arraydestroy.element17 = getelementptr inbounds %"class.icu_75::UnicodeString", ptr %arraydestroy.elementPast16, i64 -1
  call void @_ZN6icu_7513UnicodeStringD1Ev(ptr noundef nonnull align 8 dereferenceable(64) %arraydestroy.element17) #9
  %arraydestroy.done18 = icmp eq ptr %arraydestroy.element17, %array.begin8
  br i1 %arraydestroy.done18, label %arraydestroy.done19, label %arraydestroy.body15

arraydestroy.done19:                              ; preds = %arraydestroy.body15, %lpad12
  br label %ehcleanup54

lpad27:                                           ; preds = %arrayctor.loop25
  %13 = landingpad { ptr, i32 }
          cleanup
  %14 = extractvalue { ptr, i32 } %13, 0
  store ptr %14, ptr %exn.slot, align 8
  %15 = extractvalue { ptr, i32 } %13, 1
  store i32 %15, ptr %ehselector.slot, align 4
  %arraydestroy.isempty29 = icmp eq ptr %array.begin23, %arrayctor.cur26
  br i1 %arraydestroy.isempty29, label %arraydestroy.done34, label %arraydestroy.body30

arraydestroy.body30:                              ; preds = %arraydestroy.body30, %lpad27
  %arraydestroy.elementPast31 = phi ptr [ %arrayctor.cur26, %lpad27 ], [ %arraydestroy.element32, %arraydestroy.body30 ]
  %arraydestroy.element32 = getelementptr inbounds %"class.icu_75::UnicodeString", ptr %arraydestroy.elementPast31, i64 -1
  call void @_ZN6icu_7513UnicodeStringD1Ev(ptr noundef nonnull align 8 dereferenceable(64) %arraydestroy.element32) #9
  %arraydestroy.done33 = icmp eq ptr %arraydestroy.element32, %array.begin23
  br i1 %arraydestroy.done33, label %arraydestroy.done34, label %arraydestroy.body30

arraydestroy.done34:                              ; preds = %arraydestroy.body30, %lpad27
  br label %ehcleanup

lpad40:                                           ; preds = %arrayinit.end38
  %16 = landingpad { ptr, i32 }
          cleanup
  %17 = extractvalue { ptr, i32 } %16, 0
  store ptr %17, ptr %exn.slot, align 8
  %18 = extractvalue { ptr, i32 } %16, 1
  store i32 %18, ptr %ehselector.slot, align 4
  %array.begin42 = getelementptr inbounds [3 x %"class.icu_75::UnicodeString"], ptr %currencySpcAfterSym, i32 0, i32 0
  %19 = getelementptr inbounds %"class.icu_75::UnicodeString", ptr %array.begin42, i64 3
  br label %arraydestroy.body43

arraydestroy.body43:                              ; preds = %arraydestroy.body43, %lpad40
  %arraydestroy.elementPast44 = phi ptr [ %19, %lpad40 ], [ %arraydestroy.element45, %arraydestroy.body43 ]
  %arraydestroy.element45 = getelementptr inbounds %"class.icu_75::UnicodeString", ptr %arraydestroy.elementPast44, i64 -1
  call void @_ZN6icu_7513UnicodeStringD1Ev(ptr noundef nonnull align 8 dereferenceable(64) %arraydestroy.element45) #9
  %arraydestroy.done46 = icmp eq ptr %arraydestroy.element45, %array.begin42
  br i1 %arraydestroy.done46, label %arraydestroy.done47, label %arraydestroy.body43

arraydestroy.done47:                              ; preds = %arraydestroy.body43
  br label %ehcleanup

ehcleanup:                                        ; preds = %arraydestroy.done47, %arraydestroy.done34
  %array.begin48 = getelementptr inbounds [3 x %"class.icu_75::UnicodeString"], ptr %currencySpcBeforeSym, i32 0, i32 0
  %20 = getelementptr inbounds %"class.icu_75::UnicodeString", ptr %array.begin48, i64 3
  br label %arraydestroy.body49

arraydestroy.body49:                              ; preds = %arraydestroy.body49, %ehcleanup
  %arraydestroy.elementPast50 = phi ptr [ %20, %ehcleanup ], [ %arraydestroy.element51, %arraydestroy.body49 ]
  %arraydestroy.element51 = getelementptr inbounds %"class.icu_75::UnicodeString", ptr %arraydestroy.elementPast50, i64 -1
  call void @_ZN6icu_7513UnicodeStringD1Ev(ptr noundef nonnull align 8 dereferenceable(64) %arraydestroy.element51) #9
  %arraydestroy.done52 = icmp eq ptr %arraydestroy.element51, %array.begin48
  br i1 %arraydestroy.done52, label %arraydestroy.done53, label %arraydestroy.body49

arraydestroy.done53:                              ; preds = %arraydestroy.body49
  br label %ehcleanup54

ehcleanup54:                                      ; preds = %arraydestroy.done53, %arraydestroy.done19
  call void @_ZN6icu_756LocaleD1Ev(ptr noundef nonnull align 8 dereferenceable(217) %locale) #9
  br label %ehcleanup55

ehcleanup55:                                      ; preds = %ehcleanup54, %lpad5
  call void @_ZN6icu_7513UnicodeStringD1Ev(ptr noundef nonnull align 8 dereferenceable(64) %fNoSymbol) #9
  br label %ehcleanup56

ehcleanup56:                                      ; preds = %ehcleanup55, %lpad3
  %array.begin57 = getelementptr inbounds [29 x %"class.icu_75::UnicodeString"], ptr %fSymbols, i32 0, i32 0
  %21 = getelementptr inbounds %"class.icu_75::UnicodeString", ptr %array.begin57, i64 29
  br label %arraydestroy.body58

arraydestroy.body58:                              ; preds = %arraydestroy.body58, %ehcleanup56
  %arraydestroy.elementPast59 = phi ptr [ %21, %ehcleanup56 ], [ %arraydestroy.element60, %arraydestroy.body58 ]
  %arraydestroy.element60 = getelementptr inbounds %"class.icu_75::UnicodeString", ptr %arraydestroy.elementPast59, i64 -1
  call void @_ZN6icu_7513UnicodeStringD1Ev(ptr noundef nonnull align 8 dereferenceable(64) %arraydestroy.element60) #9
  %arraydestroy.done61 = icmp eq ptr %arraydestroy.element60, %array.begin57
  br i1 %arraydestroy.done61, label %arraydestroy.done62, label %arraydestroy.body58

arraydestroy.done62:                              ; preds = %arraydestroy.body58
  br label %ehcleanup63

ehcleanup63:                                      ; preds = %arraydestroy.done62, %arraydestroy.done2
  call void @_ZN6icu_757UObjectD2Ev(ptr noundef nonnull align 8 dereferenceable(8) %this1) #9
  br label %eh.resume

eh.resume:                                        ; preds = %ehcleanup63
  %exn = load ptr, ptr %exn.slot, align 8
  %sel = load i32, ptr %ehselector.slot, align 4
  %lpad.val = insertvalue { ptr, i32 } poison, ptr %exn, 0
  %lpad.val64 = insertvalue { ptr, i32 } %lpad.val, i32 %sel, 1
  resume { ptr, i32 } %lpad.val64
}