; Function Attrs: mustprogress uwtable
define void @_ZN6icu_7520DecimalFormatSymbolsC2Ev(ptr noundef nonnull align 8 dereferenceable(2883) %this) unnamed_addr #1 align 2 personality ptr @__gxx_personality_v0 {
entry:
  store ptr getelementptr inbounds ({ [5 x ptr] }, ptr @_ZTVN6icu_7520DecimalFormatSymbolsE, i64 0, i32 0, i64 2), ptr %this, align 8
  br label %invoke.cont

invoke.cont:                                      ; preds = %entry, %invoke.cont
  %arrayctor.cur.idx = phi i64 [ 8, %entry ], [ %arrayctor.cur.add, %invoke.cont ]
  %arrayctor.cur.ptr.ptr = getelementptr inbounds i8, ptr %this, i64 %arrayctor.cur.idx
  store ptr getelementptr inbounds ({ [13 x ptr] }, ptr @_ZTVN6icu_7513UnicodeStringE, i64 0, i32 0, i64 2), ptr %arrayctor.cur.ptr.ptr, align 8
  %fUnion2.i = getelementptr inbounds i8, ptr %arrayctor.cur.ptr.ptr, i64 8
  store i16 2, ptr %fUnion2.i, align 8
  %arrayctor.cur.add = add nuw nsw i64 %arrayctor.cur.idx, 64
  %arrayctor.done = icmp eq i64 %arrayctor.cur.add, 1864
  br i1 %arrayctor.done, label %invoke.cont4, label %invoke.cont

invoke.cont4:                                     ; preds = %invoke.cont
  %fNoSymbol = getelementptr inbounds i8, ptr %this, i64 1864
  store ptr getelementptr inbounds ({ [13 x ptr] }, ptr @_ZTVN6icu_7513UnicodeStringE, i64 0, i32 0, i64 2), ptr %fNoSymbol, align 8
  %fUnion2.i6 = getelementptr inbounds i8, ptr %this, i64 1872
  store i16 2, ptr %fUnion2.i6, align 8
  %locale = getelementptr inbounds i8, ptr %this, i64 1936
  %call = invoke noundef nonnull align 8 dereferenceable(217) ptr @_ZN6icu_756Locale7getRootEv()
          to label %invoke.cont6 unwind label %lpad5

invoke.cont6:                                     ; preds = %invoke.cont4
  invoke void @_ZN6icu_756LocaleC1ERKS0_(ptr noundef nonnull align 8 dereferenceable(217) %locale, ptr noundef nonnull align 8 dereferenceable(217) %call)
          to label %invoke.cont7 unwind label %lpad5

invoke.cont7:                                     ; preds = %invoke.cont6
  %currPattern = getelementptr inbounds i8, ptr %this, i64 2480
  store ptr null, ptr %currPattern, align 8
  br label %invoke.cont13

invoke.cont13:                                    ; preds = %invoke.cont7, %invoke.cont13
  %arrayctor.cur11.idx = phi i64 [ 2488, %invoke.cont7 ], [ %arrayctor.cur11.add, %invoke.cont13 ]
  %arrayctor.cur11.ptr.ptr = getelementptr inbounds i8, ptr %this, i64 %arrayctor.cur11.idx
  store ptr getelementptr inbounds ({ [13 x ptr] }, ptr @_ZTVN6icu_7513UnicodeStringE, i64 0, i32 0, i64 2), ptr %arrayctor.cur11.ptr.ptr, align 8
  %fUnion2.i7 = getelementptr inbounds i8, ptr %arrayctor.cur11.ptr.ptr, i64 8
  store i16 2, ptr %fUnion2.i7, align 8
  %arrayctor.cur11.add = add nuw nsw i64 %arrayctor.cur11.idx, 64
  %arrayctor.done21 = icmp eq i64 %arrayctor.cur11.add, 2680
  br i1 %arrayctor.done21, label %invoke.cont28, label %invoke.cont13

invoke.cont28:                                    ; preds = %invoke.cont13, %invoke.cont28
  %arrayctor.cur26.idx = phi i64 [ %arrayctor.cur26.add, %invoke.cont28 ], [ 2680, %invoke.cont13 ]
  %arrayctor.cur26.ptr.ptr = getelementptr inbounds i8, ptr %this, i64 %arrayctor.cur26.idx
  store ptr getelementptr inbounds ({ [13 x ptr] }, ptr @_ZTVN6icu_7513UnicodeStringE, i64 0, i32 0, i64 2), ptr %arrayctor.cur26.ptr.ptr, align 8
  %fUnion2.i8 = getelementptr inbounds i8, ptr %arrayctor.cur26.ptr.ptr, i64 8
  store i16 2, ptr %fUnion2.i8, align 8
  %arrayctor.cur26.add = add nuw nsw i64 %arrayctor.cur26.idx, 64
  %arrayctor.done36 = icmp eq i64 %arrayctor.cur26.add, 2872
  br i1 %arrayctor.done36, label %arrayinit.body.preheader, label %invoke.cont28

arrayinit.body.preheader:                         ; preds = %invoke.cont28
  %scevgep = getelementptr inbounds i8, ptr %this, i64 2874
  tail call void @llvm.memset.p0.i64(ptr noundef nonnull align 2 dereferenceable(9) %scevgep, i8 0, i64 9, i1 false)
  %actualLocale = getelementptr inbounds i8, ptr %this, i64 2160
  store i8 0, ptr %actualLocale, align 8
  %validLocale = getelementptr inbounds i8, ptr %this, i64 2317
  store i8 0, ptr %validLocale, align 1
  invoke void @_ZN6icu_7520DecimalFormatSymbols10initializeEv(ptr noundef nonnull align 8 dereferenceable(2883) %this)
          to label %invoke.cont41 unwind label %lpad40

invoke.cont41:                                    ; preds = %arrayinit.body.preheader
  ret void

lpad5:                                            ; preds = %invoke.cont6, %invoke.cont4
  %0 = landingpad { ptr, i32 }
          cleanup
  br label %ehcleanup55

lpad40:                                           ; preds = %arrayinit.body.preheader
  %1 = landingpad { ptr, i32 }
          cleanup
  br label %arraydestroy.body43

arraydestroy.body43:                              ; preds = %arraydestroy.body43, %lpad40
  %arraydestroy.elementPast44.idx = phi i64 [ 2872, %lpad40 ], [ %arraydestroy.elementPast44.add, %arraydestroy.body43 ]
  %arraydestroy.elementPast44.add = add nsw i64 %arraydestroy.elementPast44.idx, -64
  %arraydestroy.element45.ptr = getelementptr inbounds i8, ptr %this, i64 %arraydestroy.elementPast44.add
  tail call void @_ZN6icu_7513UnicodeStringD1Ev(ptr noundef nonnull align 8 dereferenceable(64) %arraydestroy.element45.ptr) #15
  %arraydestroy.done46 = icmp eq i64 %arraydestroy.elementPast44.add, 2680
  br i1 %arraydestroy.done46, label %arraydestroy.body49, label %arraydestroy.body43

arraydestroy.body49:                              ; preds = %arraydestroy.body43, %arraydestroy.body49
  %arraydestroy.elementPast50.idx = phi i64 [ %arraydestroy.elementPast50.add, %arraydestroy.body49 ], [ 2680, %arraydestroy.body43 ]
  %arraydestroy.elementPast50.add = add nsw i64 %arraydestroy.elementPast50.idx, -64
  %arraydestroy.element51.ptr = getelementptr inbounds i8, ptr %this, i64 %arraydestroy.elementPast50.add
  tail call void @_ZN6icu_7513UnicodeStringD1Ev(ptr noundef nonnull align 8 dereferenceable(64) %arraydestroy.element51.ptr) #15
  %arraydestroy.done52 = icmp eq i64 %arraydestroy.elementPast50.add, 2488
  br i1 %arraydestroy.done52, label %ehcleanup54, label %arraydestroy.body49

ehcleanup54:                                      ; preds = %arraydestroy.body49
  tail call void @_ZN6icu_756LocaleD1Ev(ptr noundef nonnull align 8 dereferenceable(217) %locale) #15
  br label %ehcleanup55

ehcleanup55:                                      ; preds = %ehcleanup54, %lpad5
  %.pn.pn.pn = phi { ptr, i32 } [ %1, %ehcleanup54 ], [ %0, %lpad5 ]
  tail call void @_ZN6icu_7513UnicodeStringD1Ev(ptr noundef nonnull align 8 dereferenceable(64) %fNoSymbol) #15
  br label %arraydestroy.body58

arraydestroy.body58:                              ; preds = %arraydestroy.body58, %ehcleanup55
  %arraydestroy.elementPast59.idx = phi i64 [ 1864, %ehcleanup55 ], [ %arraydestroy.elementPast59.add, %arraydestroy.body58 ]
  %arraydestroy.elementPast59.add = add nsw i64 %arraydestroy.elementPast59.idx, -64
  %arraydestroy.element60.ptr = getelementptr inbounds i8, ptr %this, i64 %arraydestroy.elementPast59.add
  tail call void @_ZN6icu_7513UnicodeStringD1Ev(ptr noundef nonnull align 8 dereferenceable(64) %arraydestroy.element60.ptr) #15
  %arraydestroy.done61 = icmp eq i64 %arraydestroy.elementPast59.add, 8
  br i1 %arraydestroy.done61, label %ehcleanup63, label %arraydestroy.body58

ehcleanup63:                                      ; preds = %arraydestroy.body58
  tail call void @_ZN6icu_757UObjectD2Ev(ptr noundef nonnull align 8 dereferenceable(8) %this) #15
  resume { ptr, i32 } %.pn.pn.pn
}